target datalayout = "e-m:e-p270:32:32-p271:32:32-p272:64:64-i64:64-i128:128-f80:128-n8:16:32:64-S128"
target triple = "x86_64-pc-linux-gnu"

; Function Attrs: nounwind sspstrong uwtable
define internal i64 @enum_collect(i64 noundef %0) #0 {
  %2 = alloca i64, align 8
  %3 = alloca i64, align 8
  %4 = alloca i64, align 8
  %5 = alloca i32, align 4
  %6 = alloca i32, align 4
  %7 = alloca i64, align 8
  %8 = alloca i32, align 4
  store i64 %0, ptr %3, align 8, !tbaa !14
  call void @llvm.lifetime.start.p0(i64 8, ptr %4) #22
  call void @llvm.lifetime.start.p0(i64 4, ptr %5) #22
  call void @llvm.lifetime.start.p0(i64 4, ptr %6) #22
  br label %9

9:                                                ; preds = %1
  %10 = call i32 @rb_block_given_p()
  %11 = icmp ne i32 %10, 0
  br i1 %11, label %18, label %12

12:                                               ; preds = %9
  %13 = load i64, ptr %3, align 8, !tbaa !14
  %14 = call i64 @rb_frame_this_func()
  %15 = call i64 @rb_id2sym(i64 noundef %14)
  store i64 %15, ptr %7, align 8, !tbaa !14
  %16 = load i64, ptr %7, align 8, !tbaa !14
  %17 = call i64 @rb_enumeratorize_with_size(i64 noundef %13, i64 noundef %16, i32 noundef 0, ptr noundef null, ptr noundef @enum_size)
  store i64 %17, ptr %2, align 8
  store i32 1, ptr %8, align 4
  br label %29

18:                                               ; preds = %9
  br label %19

19:                                               ; preds = %18
  br label %20

20:                                               ; preds = %19
  %21 = call i64 @rb_ary_new()
  store i64 %21, ptr %4, align 8, !tbaa !14
  %22 = call i32 @rb_block_min_max_arity(ptr noundef %6)
  store i32 %22, ptr %5, align 4, !tbaa !7
  %23 = load i64, ptr %3, align 8, !tbaa !14
  %24 = load i32, ptr %5, align 4, !tbaa !7
  %25 = load i32, ptr %6, align 4, !tbaa !7
  %26 = load i64, ptr %4, align 8, !tbaa !14
  %27 = call i64 @rb_lambda_call(i64 noundef %23, i64 noundef 3073, i32 noundef 0, ptr noundef null, ptr noundef @collect_i, i32 noundef %24, i32 noundef %25, i64 noundef %26)
  %28 = load i64, ptr %4, align 8, !tbaa !14
  store i64 %28, ptr %2, align 8
  store i32 1, ptr %8, align 4
  br label %29

29:                                               ; preds = %20, %12
  call void @llvm.lifetime.end.p0(i64 4, ptr %6) #22
  call void @llvm.lifetime.end.p0(i64 4, ptr %5) #22
  call void @llvm.lifetime.end.p0(i64 8, ptr %4) #22
  %30 = load i64, ptr %2, align 8
  ret i64 %30
}