; Function Attrs: nounwind sspstrong uwtable
define internal i64 @enum_collect(i64 noundef %0) #0 {
  %2 = alloca i32, align 4
  call void @llvm.lifetime.start.p0(i64 4, ptr nonnull %2) #14
  %3 = tail call i32 @rb_block_given_p() #14
  %.not = icmp eq i32 %3, 0
  br i1 %.not, label %4, label %8

4:                                                ; preds = %1
  %5 = tail call i64 @rb_frame_this_func() #14
  %6 = tail call i64 @rb_id2sym(i64 noundef %5) #14
  %7 = tail call i64 @rb_enumeratorize_with_size(i64 noundef %0, i64 noundef %6, i32 noundef 0, ptr noundef null, ptr noundef nonnull @enum_size) #14
  br label %13

8:                                                ; preds = %1
  %9 = tail call i64 @rb_ary_new() #14
  %10 = call i32 @rb_block_min_max_arity(ptr noundef nonnull %2) #14
  %11 = load i32, ptr %2, align 4, !tbaa !61
  %12 = call i64 @rb_lambda_call(i64 noundef %0, i64 noundef 3073, i32 noundef 0, ptr noundef null, ptr noundef nonnull @collect_i, i32 noundef %10, i32 noundef %11, i64 noundef %9) #14
  br label %13

13:                                               ; preds = %8, %4
  %.0 = phi i64 [ %9, %8 ], [ %7, %4 ]
  call void @llvm.lifetime.end.p0(i64 4, ptr nonnull %2) #14
  ret i64 %.0
}